; Function Attrs: mustprogress nofree norecurse nosync nounwind willreturn memory(argmem: write) uwtable
define internal range(i32 0, 2) i32 @serverinfo_srv_parse_cb(ptr readnone captures(none) %0, i32 %1, ptr readnone captures(none) %2, i64 noundef %3, ptr noundef writeonly captures(none) %4, ptr readnone captures(none) %5) #5 {
  %.not.i = icmp eq i64 %3, 0
  br i1 %.not.i, label %serverinfoex_srv_parse_cb.exit, label %7

7:                                                ; preds = %6
  store i32 50, ptr %4, align 4, !tbaa !112
  br label %serverinfoex_srv_parse_cb.exit

serverinfoex_srv_parse_cb.exit:                   ; preds = %6, %7
  %.0.i = phi i32 [ 0, %7 ], [ 1, %6 ]
  ret i32 %.0.i
}